; Function Attrs: nounwind uwtable
define hidden range(i32 0, 44) i32 @Curl_ssl_session_create(ptr noundef %0, i64 noundef %1, i32 noundef %2, ptr noundef %3, i64 noundef %4, i64 noundef %5, ptr noundef writeonly captures(none) %6) local_unnamed_addr #0 {
  %8 = icmp ne ptr %0, null
  %9 = icmp ne i64 %1, 0
  %or.cond.i = and i1 %8, %9
  br i1 %or.cond.i, label %12, label %10

10:                                               ; preds = %7
  %11 = load ptr, ptr @Curl_cfree, align 8, !tbaa !3
  tail call void %11(ptr noundef %0) #9
  br label %Curl_ssl_session_create2.exit

12:                                               ; preds = %7
  store ptr null, ptr %6, align 8, !tbaa !7
  %13 = load ptr, ptr @Curl_ccalloc, align 8, !tbaa !3
  %14 = tail call ptr %13(i64 noundef 1, i64 noundef 96) #9
  %.not.i = icmp eq ptr %14, null
  br i1 %.not.i, label %15, label %18

15:                                               ; preds = %12
  %16 = load ptr, ptr @Curl_cfree, align 8, !tbaa !3
  tail call void %16(ptr noundef nonnull %0) #9
  %17 = load ptr, ptr @Curl_cfree, align 8, !tbaa !3
  tail call void %17(ptr noundef null) #9
  br label %Curl_ssl_session_create2.exit

18:                                               ; preds = %12
  %19 = getelementptr inbounds nuw i8, ptr %14, i64 24
  store i32 %2, ptr %19, align 8, !tbaa !9
  %20 = getelementptr inbounds nuw i8, ptr %14, i64 16
  store i64 %4, ptr %20, align 8, !tbaa !17
  %21 = getelementptr inbounds nuw i8, ptr %14, i64 40
  store i64 %5, ptr %21, align 8, !tbaa !18
  store ptr %0, ptr %14, align 8, !tbaa !19
  %22 = getelementptr inbounds nuw i8, ptr %14, i64 8
  store i64 %1, ptr %22, align 8, !tbaa !20
  %23 = getelementptr inbounds nuw i8, ptr %14, i64 48
  %24 = getelementptr inbounds nuw i8, ptr %14, i64 56
  %.not33.i = icmp eq ptr %3, null
  tail call void @llvm.memset.p0.i64(ptr noundef nonnull align 8 dereferenceable(16) %23, i8 0, i64 16, i1 false)
  br i1 %.not33.i, label %40, label %25

25:                                               ; preds = %18
  %26 = load ptr, ptr @Curl_cstrdup, align 8, !tbaa !3
  %27 = tail call ptr %26(ptr noundef nonnull %3) #9
  %28 = getelementptr inbounds nuw i8, ptr %14, i64 32
  store ptr %27, ptr %28, align 8, !tbaa !21
  %.not34.i = icmp eq ptr %27, null
  br i1 %.not34.i, label %29, label %40

29:                                               ; preds = %25
  %30 = load ptr, ptr %14, align 8, !tbaa !19
  %.not.i.i.i = icmp eq ptr %30, null
  br i1 %.not.i.i.i, label %33, label %31

31:                                               ; preds = %29
  %32 = load ptr, ptr @Curl_cfree, align 8, !tbaa !3
  tail call void %32(ptr noundef nonnull %30) #9
  store ptr null, ptr %14, align 8, !tbaa !19
  br label %33

33:                                               ; preds = %31, %29
  store i64 0, ptr %22, align 8, !tbaa !20
  %34 = load ptr, ptr %23, align 8, !tbaa !22
  %.not13.i.i.i = icmp eq ptr %34, null
  br i1 %.not13.i.i.i, label %cf_ssl_scache_sesssion_ldestroy.exit.i, label %35

35:                                               ; preds = %33
  %36 = load ptr, ptr @Curl_cfree, align 8, !tbaa !3
  tail call void %36(ptr noundef nonnull %34) #9
  store ptr null, ptr %23, align 8, !tbaa !22
  br label %cf_ssl_scache_sesssion_ldestroy.exit.i

cf_ssl_scache_sesssion_ldestroy.exit.i:           ; preds = %35, %33
  store i64 0, ptr %24, align 8, !tbaa !23
  store i32 0, ptr %19, align 8, !tbaa !9
  store i64 0, ptr %20, align 8, !tbaa !17
  %37 = load ptr, ptr @Curl_cfree, align 8, !tbaa !3
  %38 = load ptr, ptr %28, align 8, !tbaa !21
  tail call void %37(ptr noundef %38) #9
  store ptr null, ptr %28, align 8, !tbaa !21
  %39 = load ptr, ptr @Curl_cfree, align 8, !tbaa !3
  tail call void %39(ptr noundef nonnull %14) #9
  br label %Curl_ssl_session_create2.exit

40:                                               ; preds = %25, %18
  store ptr %14, ptr %6, align 8, !tbaa !7
  br label %Curl_ssl_session_create2.exit

Curl_ssl_session_create2.exit:                    ; preds = %10, %15, %cf_ssl_scache_sesssion_ldestroy.exit.i, %40
  %.0.i = phi i32 [ 0, %40 ], [ 27, %cf_ssl_scache_sesssion_ldestroy.exit.i ], [ 27, %15 ], [ 43, %10 ]
  ret i32 %.0.i
}